target datalayout = "e-m:e-p270:32:32-p271:32:32-p272:64:64-i64:64-i128:128-f80:128-n8:16:32:64-S128"
target triple = "x86_64-pc-linux-gnu"

%"class.google::protobuf::io::FileOutputStream::CopyingFileOutputStream" = type <{ %"class.google::protobuf::io::CopyingOutputStream", i32, i8, i8, [2 x i8], i32, [4 x i8] }>
%"class.google::protobuf::io::CopyingOutputStream" = type { ptr }

; Function Attrs: inlinehint mustprogress nounwind uwtable
define linkonce_odr hidden void @_ZN6google8protobuf2io19CopyingOutputStreamC2Ev(ptr noundef nonnull align 8 dereferenceable(8) %0) unnamed_addr #6 comdat align 2 {
  %2 = alloca ptr, align 8
  store ptr %0, ptr %2, align 8, !tbaa !47
  %3 = load ptr, ptr %2, align 8
  store ptr getelementptr inbounds inrange(-16, 24) ({ [5 x ptr] }, ptr @_ZTVN6google8protobuf2io19CopyingOutputStreamE, i32 0, i32 0, i32 2), ptr %3, align 8, !tbaa !10
  ret void
}

; Function Attrs: mustprogress nounwind uwtable
define hidden void @_ZN6google8protobuf2io16FileOutputStream23CopyingFileOutputStreamC2Ei(ptr noundef nonnull align 8 dereferenceable(20) %0, i32 noundef %1) unnamed_addr #5 align 2 {
  %3 = alloca ptr, align 8
  %4 = alloca i32, align 4
  store ptr %0, ptr %3, align 8, !tbaa !39
  store i32 %1, ptr %4, align 4, !tbaa !8
  %5 = load ptr, ptr %3, align 8
  call void @_ZN6google8protobuf2io19CopyingOutputStreamC2Ev(ptr noundef nonnull align 8 dereferenceable(8) %5) #3
  store ptr getelementptr inbounds inrange(-16, 24) ({ [5 x ptr] }, ptr @_ZTVN6google8protobuf2io16FileOutputStream23CopyingFileOutputStreamE, i32 0, i32 0, i32 2), ptr %5, align 8, !tbaa !10
  %6 = getelementptr inbounds nuw %"class.google::protobuf::io::FileOutputStream::CopyingFileOutputStream", ptr %5, i32 0, i32 1
  %7 = load i32, ptr %4, align 4, !tbaa !8
  store i32 %7, ptr %6, align 8, !tbaa !44
  %8 = getelementptr inbounds nuw %"class.google::protobuf::io::FileOutputStream::CopyingFileOutputStream", ptr %5, i32 0, i32 2
  store i8 0, ptr %8, align 4, !tbaa !46
  %9 = getelementptr inbounds nuw %"class.google::protobuf::io::FileOutputStream::CopyingFileOutputStream", ptr %5, i32 0, i32 3
  store i8 0, ptr %9, align 1, !tbaa !41
  %10 = getelementptr inbounds nuw %"class.google::protobuf::io::FileOutputStream::CopyingFileOutputStream", ptr %5, i32 0, i32 5
  store i32 0, ptr %10, align 8, !tbaa !45
  ret void
}