; Function Attrs: mustprogress nofree norecurse nosync nounwind willreturn memory(argmem: write) uwtable
define hidden void @_ZN6google8protobuf2io16FileOutputStream23CopyingFileOutputStreamC2Ei(ptr noundef nonnull writeonly align 8 captures(none) dereferenceable(20) initializes((0, 14), (16, 20)) %0, i32 noundef %1) unnamed_addr #11 align 2 {
  store ptr getelementptr inbounds nuw inrange(-16, 24) (i8, ptr @_ZTVN6google8protobuf2io16FileOutputStream23CopyingFileOutputStreamE, i64 16), ptr %0, align 8, !tbaa !3
  %3 = getelementptr inbounds nuw i8, ptr %0, i64 8
  store i32 %1, ptr %3, align 8, !tbaa !22
  %4 = getelementptr inbounds nuw i8, ptr %0, i64 12
  store i8 0, ptr %4, align 4, !tbaa !25
  %5 = getelementptr inbounds nuw i8, ptr %0, i64 13
  store i8 0, ptr %5, align 1, !tbaa !26
  %6 = getelementptr inbounds nuw i8, ptr %0, i64 16
  store i32 0, ptr %6, align 8, !tbaa !27
  ret void
}